target datalayout = "e-m:e-p270:32:32-p271:32:32-p272:64:64-i64:64-i128:128-f80:128-n8:16:32:64-S128"
target triple = "x86_64-pc-linux-gnu"

%"class.tinyxml2::StrPair" = type { i32, ptr, ptr }
%"class.tinyxml2::XMLNode" = type { ptr, ptr, ptr, %"class.tinyxml2::StrPair", i32, ptr, ptr, ptr, ptr, ptr, ptr }

@.str.3 = private unnamed_addr constant [3 x i8] c"%u\00", align 1
@.str.9 = private unnamed_addr constant [3 x i8] c"%x\00", align 1

; Function Attrs: inlinehint mustprogress nounwind uwtable
define linkonce_odr hidden noundef zeroext i1 @_ZN8tinyxml27XMLUtil18IsUTF8ContinuationEc(i8 noundef signext %0) #8 comdat align 2 {
  %2 = alloca i8, align 1
  store i8 %0, ptr %2, align 1, !tbaa !20
  %3 = load i8, ptr %2, align 1, !tbaa !20
  %4 = sext i8 %3 to i32
  %5 = and i32 %4, 128
  %6 = icmp ne i32 %5, 0
  ret i1 %6
}

; Function Attrs: mustprogress uwtable
define linkonce_odr hidden noundef zeroext i1 @_ZN8tinyxml27XMLUtil12IsWhiteSpaceEc(i8 noundef signext %0) #2 comdat align 2 {
  %2 = alloca i8, align 1
  store i8 %0, ptr %2, align 1, !tbaa !20
  %3 = load i8, ptr %2, align 1, !tbaa !20
  %4 = call noundef zeroext i1 @_ZN8tinyxml27XMLUtil18IsUTF8ContinuationEc(i8 noundef signext %3)
  br i1 %4, label %10, label %5

5:                                                ; preds = %1
  %6 = load i8, ptr %2, align 1, !tbaa !20
  %7 = zext i8 %6 to i32
  %8 = call i32 @isspace(i32 noundef %7) #19
  %9 = icmp ne i32 %8, 0
  br label %10

10:                                               ; preds = %5, %1
  %11 = phi i1 [ false, %1 ], [ %9, %5 ]
  ret i1 %11
}

; Function Attrs: mustprogress uwtable
define linkonce_odr hidden noundef ptr @_ZN8tinyxml27XMLUtil14SkipWhiteSpaceEPKcPi(ptr noundef %0, ptr noundef %1) #2 comdat align 2 {
  %3 = alloca ptr, align 8
  %4 = alloca ptr, align 8
  store ptr %0, ptr %3, align 8, !tbaa !14
  store ptr %1, ptr %4, align 8, !tbaa !18
  br label %5

5:                                                ; preds = %21, %2
  %6 = load ptr, ptr %3, align 8, !tbaa !14
  %7 = load i8, ptr %6, align 1, !tbaa !20
  %8 = call noundef zeroext i1 @_ZN8tinyxml27XMLUtil12IsWhiteSpaceEc(i8 noundef signext %7)
  br i1 %8, label %9, label %24

9:                                                ; preds = %5
  %10 = load ptr, ptr %4, align 8, !tbaa !18
  %11 = icmp ne ptr %10, null
  br i1 %11, label %12, label %21

12:                                               ; preds = %9
  %13 = load ptr, ptr %3, align 8, !tbaa !14
  %14 = load i8, ptr %13, align 1, !tbaa !20
  %15 = sext i8 %14 to i32
  %16 = icmp eq i32 %15, 10
  br i1 %16, label %17, label %21

17:                                               ; preds = %12
  %18 = load ptr, ptr %4, align 8, !tbaa !18
  %19 = load i32, ptr %18, align 4, !tbaa !15
  %20 = add nsw i32 %19, 1
  store i32 %20, ptr %18, align 4, !tbaa !15
  br label %21

21:                                               ; preds = %17, %12, %9
  %22 = load ptr, ptr %3, align 8, !tbaa !14
  %23 = getelementptr inbounds nuw i8, ptr %22, i32 1
  store ptr %23, ptr %3, align 8, !tbaa !14
  br label %5, !llvm.loop !25

24:                                               ; preds = %5
  %25 = load ptr, ptr %3, align 8, !tbaa !14
  ret ptr %25
}

; Function Attrs: inlinehint mustprogress uwtable
define linkonce_odr hidden noundef zeroext i1 @_ZN8tinyxml27XMLUtil11IsPrefixHexEPKc(ptr noundef %0) #11 comdat align 2 {
  %2 = alloca ptr, align 8
  store ptr %0, ptr %2, align 8, !tbaa !14
  %3 = load ptr, ptr %2, align 8, !tbaa !14
  %4 = call noundef ptr @_ZN8tinyxml27XMLUtil14SkipWhiteSpaceEPKcPi(ptr noundef %3, ptr noundef null)
  store ptr %4, ptr %2, align 8, !tbaa !14
  %5 = load ptr, ptr %2, align 8, !tbaa !14
  %6 = icmp ne ptr %5, null
  br i1 %6, label %7, label %26

7:                                                ; preds = %1
  %8 = load ptr, ptr %2, align 8, !tbaa !14
  %9 = load i8, ptr %8, align 1, !tbaa !20
  %10 = sext i8 %9 to i32
  %11 = icmp eq i32 %10, 48
  br i1 %11, label %12, label %26

12:                                               ; preds = %7
  %13 = load ptr, ptr %2, align 8, !tbaa !14
  %14 = getelementptr inbounds i8, ptr %13, i64 1
  %15 = load i8, ptr %14, align 1, !tbaa !20
  %16 = sext i8 %15 to i32
  %17 = icmp eq i32 %16, 120
  br i1 %17, label %24, label %18

18:                                               ; preds = %12
  %19 = load ptr, ptr %2, align 8, !tbaa !14
  %20 = getelementptr inbounds i8, ptr %19, i64 1
  %21 = load i8, ptr %20, align 1, !tbaa !20
  %22 = sext i8 %21 to i32
  %23 = icmp eq i32 %22, 88
  br label %24

24:                                               ; preds = %18, %12
  %25 = phi i1 [ true, %12 ], [ %23, %18 ]
  br label %26

26:                                               ; preds = %24, %7, %1
  %27 = phi i1 [ false, %7 ], [ false, %1 ], [ %25, %24 ]
  ret i1 %27
}

; Function Attrs: mustprogress uwtable
define noundef zeroext i1 @_ZN8tinyxml27XMLUtil10ToUnsignedEPKcPj(ptr noundef %0, ptr noundef %1) #2 align 2 {
  %3 = alloca i1, align 1
  %4 = alloca ptr, align 8
  %5 = alloca ptr, align 8
  store ptr %0, ptr %4, align 8, !tbaa !14
  store ptr %1, ptr %5, align 8, !tbaa !18
  %6 = load ptr, ptr %4, align 8, !tbaa !14
  %7 = load ptr, ptr %4, align 8, !tbaa !14
  %8 = call noundef zeroext i1 @_ZN8tinyxml27XMLUtil11IsPrefixHexEPKc(ptr noundef %7)
  br i1 %8, label %9, label %10

9:                                                ; preds = %2
  br label %11

10:                                               ; preds = %2
  br label %11

11:                                               ; preds = %10, %9
  %12 = phi ptr [ @.str.9, %9 ], [ @.str.3, %10 ]
  %13 = getelementptr inbounds [3 x i8], ptr %12, i64 0, i64 0
  %14 = load ptr, ptr %5, align 8, !tbaa !18
  %15 = call i32 (ptr, ptr, ...) @__isoc99_sscanf(ptr noundef %6, ptr noundef %13, ptr noundef %14) #18
  %16 = icmp eq i32 %15, 1
  br i1 %16, label %17, label %18

17:                                               ; preds = %11
  store i1 true, ptr %3, align 1
  br label %19

18:                                               ; preds = %11
  store i1 false, ptr %3, align 1
  br label %19

19:                                               ; preds = %18, %17
  %20 = load i1, ptr %3, align 1
  ret i1 %20
}

; Function Attrs: mustprogress uwtable
define noundef ptr @_ZNK8tinyxml27XMLNode5ValueEv(ptr noundef nonnull align 8 dereferenceable(104) %0) #2 align 2 {
  %2 = alloca ptr, align 8
  %3 = alloca ptr, align 8
  store ptr %0, ptr %3, align 8, !tbaa !85
  %4 = load ptr, ptr %3, align 8
  %5 = load ptr, ptr %4, align 8, !tbaa !91
  %6 = getelementptr inbounds ptr, ptr %5, i64 9
  %7 = load ptr, ptr %6, align 8
  %8 = call noundef ptr %7(ptr noundef nonnull align 8 dereferenceable(104) %4)
  %9 = icmp ne ptr %8, null
  br i1 %9, label %10, label %11

10:                                               ; preds = %1
  store ptr null, ptr %2, align 8
  br label %14

11:                                               ; preds = %1
  %12 = getelementptr inbounds nuw %"class.tinyxml2::XMLNode", ptr %4, i32 0, i32 3
  %13 = call noundef ptr @_ZN8tinyxml27StrPair6GetStrEv(ptr noundef nonnull align 8 dereferenceable(24) %12)
  store ptr %13, ptr %2, align 8
  br label %14

14:                                               ; preds = %11, %10
  %15 = load ptr, ptr %2, align 8
  ret ptr %15
}

; Function Attrs: mustprogress nounwind uwtable
define linkonce_odr hidden noundef ptr @_ZNK8tinyxml27XMLNode10FirstChildEv(ptr noundef nonnull align 8 dereferenceable(104) %0) #0 comdat align 2 {
  %2 = alloca ptr, align 8
  store ptr %0, ptr %2, align 8, !tbaa !85
  %3 = load ptr, ptr %2, align 8
  %4 = getelementptr inbounds nuw %"class.tinyxml2::XMLNode", ptr %3, i32 0, i32 5
  %5 = load ptr, ptr %4, align 8, !tbaa !111
  ret ptr %5
}

; Function Attrs: mustprogress uwtable
define noundef i32 @_ZNK8tinyxml210XMLElement17QueryUnsignedTextEPj(ptr noundef nonnull align 8 dereferenceable(120) %0, ptr noundef %1) #2 align 2 {
  %3 = alloca i32, align 4
  %4 = alloca ptr, align 8
  %5 = alloca ptr, align 8
  %6 = alloca ptr, align 8
  %7 = alloca i32, align 4
  store ptr %0, ptr %4, align 8, !tbaa !106
  store ptr %1, ptr %5, align 8, !tbaa !18
  %8 = load ptr, ptr %4, align 8
  %9 = call noundef ptr @_ZNK8tinyxml27XMLNode10FirstChildEv(ptr noundef nonnull align 8 dereferenceable(104) %8)
  %10 = icmp ne ptr %9, null
  br i1 %10, label %11, label %27

11:                                               ; preds = %2
  %12 = call noundef ptr @_ZNK8tinyxml27XMLNode10FirstChildEv(ptr noundef nonnull align 8 dereferenceable(104) %8)
  %13 = load ptr, ptr %12, align 8, !tbaa !91
  %14 = getelementptr inbounds ptr, ptr %13, i64 7
  %15 = load ptr, ptr %14, align 8
  %16 = call noundef ptr %15(ptr noundef nonnull align 8 dereferenceable(104) %12)
  %17 = icmp ne ptr %16, null
  br i1 %17, label %18, label %27

18:                                               ; preds = %11
  call void @llvm.lifetime.start.p0(i64 8, ptr %6) #18
  %19 = call noundef ptr @_ZNK8tinyxml27XMLNode10FirstChildEv(ptr noundef nonnull align 8 dereferenceable(104) %8)
  %20 = call noundef ptr @_ZNK8tinyxml27XMLNode5ValueEv(ptr noundef nonnull align 8 dereferenceable(104) %19)
  store ptr %20, ptr %6, align 8, !tbaa !14
  %21 = load ptr, ptr %6, align 8, !tbaa !14
  %22 = load ptr, ptr %5, align 8, !tbaa !18
  %23 = call noundef zeroext i1 @_ZN8tinyxml27XMLUtil10ToUnsignedEPKcPj(ptr noundef %21, ptr noundef %22)
  br i1 %23, label %24, label %25

24:                                               ; preds = %18
  store i32 0, ptr %3, align 4
  store i32 1, ptr %7, align 4
  br label %26

25:                                               ; preds = %18
  store i32 16, ptr %3, align 4
  store i32 1, ptr %7, align 4
  br label %26

26:                                               ; preds = %25, %24
  call void @llvm.lifetime.end.p0(i64 8, ptr %6) #18
  br label %28

27:                                               ; preds = %11, %2
  store i32 17, ptr %3, align 4
  br label %28

28:                                               ; preds = %27, %26
  %29 = load i32, ptr %3, align 4
  ret i32 %29
}