; Function Attrs: mustprogress uwtable
define noundef range(i32 0, 18) i32 @_ZNK8tinyxml210XMLElement17QueryUnsignedTextEPj(ptr noundef nonnull readonly align 8 captures(none) dereferenceable(120) %0, ptr noundef %1) local_unnamed_addr #4 align 2 {
  %3 = getelementptr inbounds nuw i8, ptr %0, i64 56
  %4 = load ptr, ptr %3, align 8, !tbaa !76
  %.not = icmp eq ptr %4, null
  br i1 %.not, label %34, label %5

5:                                                ; preds = %2
  %6 = load ptr, ptr %4, align 8, !tbaa !63
  %7 = getelementptr inbounds nuw i8, ptr %6, i64 56
  %8 = load ptr, ptr %7, align 8
  %9 = tail call noundef ptr %8(ptr noundef nonnull align 8 dereferenceable(104) %4)
  %.not3 = icmp eq ptr %9, null
  br i1 %.not3, label %34, label %10

10:                                               ; preds = %5
  %11 = load ptr, ptr %3, align 8, !tbaa !76
  %12 = load ptr, ptr %11, align 8, !tbaa !63
  %13 = getelementptr inbounds nuw i8, ptr %12, i64 72
  %14 = load ptr, ptr %13, align 8
  %15 = tail call noundef ptr %14(ptr noundef nonnull align 8 dereferenceable(104) %11)
  %.not.i = icmp eq ptr %15, null
  br i1 %.not.i, label %16, label %_ZNK8tinyxml27XMLNode5ValueEv.exit

16:                                               ; preds = %10
  %17 = getelementptr inbounds nuw i8, ptr %11, i64 24
  %18 = tail call noundef ptr @_ZN8tinyxml27StrPair6GetStrEv(ptr noundef nonnull align 8 dereferenceable(24) %17)
  br label %_ZNK8tinyxml27XMLNode5ValueEv.exit

_ZNK8tinyxml27XMLNode5ValueEv.exit:               ; preds = %10, %16
  %.0.i = phi ptr [ %18, %16 ], [ null, %10 ]
  %19 = load i8, ptr %.0.i, align 1, !tbaa !12
  %20 = icmp slt i8 %19, 0
  br i1 %20, label %_ZN8tinyxml27XMLUtil10ToUnsignedEPKcPj.exit, label %_ZN8tinyxml27XMLUtil12IsWhiteSpaceEc.exit.us.i.i.i

_ZN8tinyxml27XMLUtil12IsWhiteSpaceEc.exit.us.i.i.i: ; preds = %_ZNK8tinyxml27XMLNode5ValueEv.exit, %23
  %.pr.i.i = phi i8 [ %25, %23 ], [ %19, %_ZNK8tinyxml27XMLNode5ValueEv.exit ]
  %.08.us.i.i.i = phi ptr [ %24, %23 ], [ %.0.i, %_ZNK8tinyxml27XMLNode5ValueEv.exit ]
  %21 = zext nneg i8 %.pr.i.i to i32
  %22 = tail call i32 @isspace(i32 noundef %21) #33
  %.not7.us.i.i.i = icmp eq i32 %22, 0
  br i1 %.not7.us.i.i.i, label %_ZN8tinyxml27XMLUtil14SkipWhiteSpaceEPKcPi.exit.i.i, label %23

23:                                               ; preds = %_ZN8tinyxml27XMLUtil12IsWhiteSpaceEc.exit.us.i.i.i
  %24 = getelementptr inbounds nuw i8, ptr %.08.us.i.i.i, i64 1
  %25 = load i8, ptr %24, align 1, !tbaa !12
  %26 = icmp slt i8 %25, 0
  br i1 %26, label %_ZN8tinyxml27XMLUtil10ToUnsignedEPKcPj.exit, label %_ZN8tinyxml27XMLUtil12IsWhiteSpaceEc.exit.us.i.i.i, !llvm.loop !17

_ZN8tinyxml27XMLUtil14SkipWhiteSpaceEPKcPi.exit.i.i: ; preds = %_ZN8tinyxml27XMLUtil12IsWhiteSpaceEc.exit.us.i.i.i
  %27 = icmp eq i8 %.pr.i.i, 48
  br i1 %27, label %_ZN8tinyxml27XMLUtil11IsPrefixHexEPKc.exit.i, label %_ZN8tinyxml27XMLUtil10ToUnsignedEPKcPj.exit

_ZN8tinyxml27XMLUtil11IsPrefixHexEPKc.exit.i:     ; preds = %_ZN8tinyxml27XMLUtil14SkipWhiteSpaceEPKcPi.exit.i.i
  %28 = getelementptr inbounds nuw i8, ptr %.08.us.i.i.i, i64 1
  %29 = load i8, ptr %28, align 1, !tbaa !12
  %.fr5.i = freeze i8 %29
  %30 = and i8 %.fr5.i, -33
  %spec.select.i.i = icmp eq i8 %30, 88
  %spec.select.i = select i1 %spec.select.i.i, ptr @.str.9, ptr @.str.3
  br label %_ZN8tinyxml27XMLUtil10ToUnsignedEPKcPj.exit

_ZN8tinyxml27XMLUtil10ToUnsignedEPKcPj.exit:      ; preds = %23, %_ZNK8tinyxml27XMLNode5ValueEv.exit, %_ZN8tinyxml27XMLUtil14SkipWhiteSpaceEPKcPi.exit.i.i, %_ZN8tinyxml27XMLUtil11IsPrefixHexEPKc.exit.i
  %31 = phi ptr [ @.str.3, %_ZN8tinyxml27XMLUtil14SkipWhiteSpaceEPKcPi.exit.i.i ], [ @.str.3, %_ZNK8tinyxml27XMLNode5ValueEv.exit ], [ %spec.select.i, %_ZN8tinyxml27XMLUtil11IsPrefixHexEPKc.exit.i ], [ @.str.3, %23 ]
  %32 = tail call i32 (ptr, ptr, ...) @__isoc99_sscanf(ptr noundef nonnull readonly %.0.i, ptr noundef nonnull %31, ptr noundef %1) #31
  %33 = icmp eq i32 %32, 1
  %. = select i1 %33, i32 0, i32 16
  br label %34

34:                                               ; preds = %2, %5, %_ZN8tinyxml27XMLUtil10ToUnsignedEPKcPj.exit
  %.1 = phi i32 [ %., %_ZN8tinyxml27XMLUtil10ToUnsignedEPKcPj.exit ], [ 17, %5 ], [ 17, %2 ]
  ret i32 %.1
}